; Function Attrs: mustprogress null_pointer_is_valid sspstrong uwtable
define void @_ZNK8UatModel10headerDataEiN2Qt11OrientationEi(ptr dead_on_unwind noalias writable sret(%class.QVariant) align 8 %0, ptr noundef readonly align 8 captures(none) dereferenceable_or_null(80) %1, i32 noundef %2, i32 noundef %3, i32 noundef %4) unnamed_addr #0 align 2 {
  %.not = icmp eq i32 %3, 1
  br i1 %.not, label %8, label %6

6:                                                ; preds = %5
  tail call void @llvm.memset.p0.i64(ptr noundef align 8 dereferenceable(24) dereferenceable_or_null(32) %0, i8 0, i64 24, i1 false)
  %7 = getelementptr inbounds nuw i8, ptr %0, i64 24
  store i64 2, ptr %7, align 8
  br label %28

8:                                                ; preds = %5
  switch i32 %4, label %26 [
    i32 3, label %9
    i32 0, label %18
  ]

9:                                                ; preds = %8
  %10 = getelementptr inbounds nuw i8, ptr %1, i64 16
  %11 = load ptr, ptr %10, align 8
  %12 = getelementptr inbounds nuw i8, ptr %11, i64 104
  %13 = load ptr, ptr %12, align 8
  %14 = sext i32 %2 to i64
  %15 = getelementptr %struct._uat_field_t, ptr %13, i64 %14, i32 6
  %16 = load ptr, ptr %15, align 8
  %.not6 = icmp eq ptr %16, null
  br i1 %.not6, label %26, label %17

17:                                               ; preds = %9
  tail call void @_ZN8QVariantC2EPKc(ptr noundef align 8 dereferenceable_or_null(32) %0, ptr noundef nonnull %16)
  br label %28

18:                                               ; preds = %8
  %19 = getelementptr inbounds nuw i8, ptr %1, i64 16
  %20 = load ptr, ptr %19, align 8
  %21 = getelementptr inbounds nuw i8, ptr %20, i64 104
  %22 = load ptr, ptr %21, align 8
  %23 = sext i32 %2 to i64
  %24 = getelementptr %struct._uat_field_t, ptr %22, i64 %23, i32 1
  %25 = load ptr, ptr %24, align 8
  tail call void @_ZN8QVariantC2EPKc(ptr noundef align 8 dereferenceable_or_null(32) %0, ptr noundef %25)
  br label %28

26:                                               ; preds = %9, %8
  tail call void @llvm.memset.p0.i64(ptr noundef align 8 dereferenceable(24) dereferenceable_or_null(32) %0, i8 0, i64 24, i1 false)
  %27 = getelementptr inbounds nuw i8, ptr %0, i64 24
  store i64 2, ptr %27, align 8
  br label %28

28:                                               ; preds = %26, %18, %17, %6
  ret void
}